; Function Attrs: nounwind uwtable
define ptr @l_Array_forIn_x27Unsafe_loop___at___private_Lean_Meta_Tactic_Grind_Arith_Cutsat_EqCnstr_0__Lean_Meta_Grind_Arith_Cutsat_DiseqCnstr_findLe___spec__15___boxed(ptr noundef readonly captures(none) %0) local_unnamed_addr #1 {
  %2 = load ptr, ptr %0, align 8, !tbaa !9
  %3 = getelementptr inbounds nuw i8, ptr %0, i64 8
  %4 = load ptr, ptr %3, align 8, !tbaa !9
  %5 = getelementptr inbounds nuw i8, ptr %0, i64 16
  %6 = load ptr, ptr %5, align 8, !tbaa !9
  %7 = getelementptr inbounds nuw i8, ptr %0, i64 24
  %8 = load ptr, ptr %7, align 8, !tbaa !9
  %9 = getelementptr inbounds nuw i8, ptr %0, i64 32
  %10 = load ptr, ptr %9, align 8, !tbaa !9
  %11 = getelementptr inbounds nuw i8, ptr %0, i64 40
  %12 = load ptr, ptr %11, align 8, !tbaa !9
  %13 = getelementptr inbounds nuw i8, ptr %0, i64 48
  %14 = load ptr, ptr %13, align 8, !tbaa !9
  %15 = getelementptr inbounds nuw i8, ptr %0, i64 56
  %16 = load ptr, ptr %15, align 8, !tbaa !9
  %17 = getelementptr inbounds nuw i8, ptr %0, i64 64
  %18 = load ptr, ptr %17, align 8, !tbaa !9
  %19 = getelementptr inbounds nuw i8, ptr %0, i64 72
  %20 = load ptr, ptr %19, align 8, !tbaa !9
  %21 = getelementptr inbounds nuw i8, ptr %0, i64 80
  %22 = load ptr, ptr %21, align 8, !tbaa !9
  %23 = getelementptr inbounds nuw i8, ptr %0, i64 88
  %24 = load ptr, ptr %23, align 8, !tbaa !9
  %25 = getelementptr inbounds nuw i8, ptr %0, i64 96
  %26 = load ptr, ptr %25, align 8, !tbaa !9
  %27 = getelementptr inbounds nuw i8, ptr %0, i64 104
  %28 = load ptr, ptr %27, align 8, !tbaa !9
  %29 = getelementptr inbounds nuw i8, ptr %0, i64 112
  %30 = load ptr, ptr %29, align 8, !tbaa !9
  %31 = getelementptr inbounds nuw i8, ptr %0, i64 120
  %32 = load ptr, ptr %31, align 8, !tbaa !9
  %33 = getelementptr inbounds nuw i8, ptr %0, i64 128
  %34 = load ptr, ptr %33, align 8, !tbaa !9
  %35 = getelementptr inbounds nuw i8, ptr %0, i64 136
  %36 = load ptr, ptr %35, align 8, !tbaa !9
  %37 = getelementptr inbounds nuw i8, ptr %0, i64 144
  %38 = load ptr, ptr %37, align 8, !tbaa !9
  %39 = getelementptr i8, ptr %16, i64 8
  %.val61 = load i64, ptr %39, align 8, !tbaa !13
  %40 = ptrtoint ptr %16 to i64
  %41 = and i64 %40, 1
  %.not = icmp eq i64 %41, 0
  br i1 %.not, label %42, label %lean_dec.exit50

42:                                               ; preds = %1
  %43 = load i32, ptr %16, align 4, !tbaa !4
  %44 = icmp sgt i32 %43, 1
  br i1 %44, label %45, label %47, !prof !11

45:                                               ; preds = %42
  %46 = add nsw i32 %43, -1
  store i32 %46, ptr %16, align 4, !tbaa !4
  br label %lean_dec.exit50

47:                                               ; preds = %42
  %.not.i = icmp eq i32 %43, 0
  br i1 %.not.i, label %lean_dec.exit50, label %48

48:                                               ; preds = %47
  tail call void @lean_dec_ref_cold(ptr noundef nonnull %16) #7
  br label %lean_dec.exit50

lean_dec.exit50:                                  ; preds = %48, %47, %45, %1
  %49 = getelementptr i8, ptr %18, i64 8
  %.val = load i64, ptr %49, align 8, !tbaa !13
  %50 = ptrtoint ptr %18 to i64
  %51 = and i64 %50, 1
  %.not62 = icmp eq i64 %51, 0
  br i1 %.not62, label %52, label %lean_dec.exit49

52:                                               ; preds = %lean_dec.exit50
  %53 = load i32, ptr %18, align 4, !tbaa !4
  %54 = icmp sgt i32 %53, 1
  br i1 %54, label %55, label %57, !prof !11

55:                                               ; preds = %52
  %56 = add nsw i32 %53, -1
  store i32 %56, ptr %18, align 4, !tbaa !4
  br label %lean_dec.exit49

57:                                               ; preds = %52
  %.not.i51 = icmp eq i32 %53, 0
  br i1 %.not.i51, label %lean_dec.exit49, label %58

58:                                               ; preds = %57
  tail call void @lean_dec_ref_cold(ptr noundef nonnull %18) #7
  br label %lean_dec.exit49

lean_dec.exit49:                                  ; preds = %58, %57, %55, %lean_dec.exit50
  %59 = tail call ptr @l_Array_forIn_x27Unsafe_loop___at___private_Lean_Meta_Tactic_Grind_Arith_Cutsat_EqCnstr_0__Lean_Meta_Grind_Arith_Cutsat_DiseqCnstr_findLe___spec__15(ptr noundef %2, ptr noundef %4, ptr noundef %6, ptr poison, ptr poison, ptr noundef %12, ptr noundef %14, i64 noundef %.val61, i64 noundef %.val, ptr noundef %20, ptr noundef %22, ptr noundef %24, ptr noundef %26, ptr noundef %28, ptr noundef %30, ptr noundef %32, ptr noundef %34, ptr noundef %36, ptr noundef %38)
  %60 = ptrtoint ptr %14 to i64
  %61 = and i64 %60, 1
  %.not63 = icmp eq i64 %61, 0
  br i1 %.not63, label %62, label %lean_dec.exit48

62:                                               ; preds = %lean_dec.exit49
  %63 = load i32, ptr %14, align 4, !tbaa !4
  %64 = icmp sgt i32 %63, 1
  br i1 %64, label %65, label %67, !prof !11

65:                                               ; preds = %62
  %66 = add nsw i32 %63, -1
  store i32 %66, ptr %14, align 4, !tbaa !4
  br label %lean_dec.exit48

67:                                               ; preds = %62
  %.not.i53 = icmp eq i32 %63, 0
  br i1 %.not.i53, label %lean_dec.exit48, label %68

68:                                               ; preds = %67
  tail call void @lean_dec_ref_cold(ptr noundef nonnull %14) #7
  br label %lean_dec.exit48

lean_dec.exit48:                                  ; preds = %68, %67, %65, %lean_dec.exit49
  %69 = ptrtoint ptr %10 to i64
  %70 = and i64 %69, 1
  %.not64 = icmp eq i64 %70, 0
  br i1 %.not64, label %71, label %lean_dec.exit47

71:                                               ; preds = %lean_dec.exit48
  %72 = load i32, ptr %10, align 4, !tbaa !4
  %73 = icmp sgt i32 %72, 1
  br i1 %73, label %74, label %76, !prof !11

74:                                               ; preds = %71
  %75 = add nsw i32 %72, -1
  store i32 %75, ptr %10, align 4, !tbaa !4
  br label %lean_dec.exit47

76:                                               ; preds = %71
  %.not.i55 = icmp eq i32 %72, 0
  br i1 %.not.i55, label %lean_dec.exit47, label %77

77:                                               ; preds = %76
  tail call void @lean_dec_ref_cold(ptr noundef nonnull %10) #7
  br label %lean_dec.exit47

lean_dec.exit47:                                  ; preds = %77, %76, %74, %lean_dec.exit48
  %78 = ptrtoint ptr %8 to i64
  %79 = and i64 %78, 1
  %.not65 = icmp eq i64 %79, 0
  br i1 %.not65, label %80, label %lean_dec.exit46

80:                                               ; preds = %lean_dec.exit47
  %81 = load i32, ptr %8, align 4, !tbaa !4
  %82 = icmp sgt i32 %81, 1
  br i1 %82, label %83, label %85, !prof !11

83:                                               ; preds = %80
  %84 = add nsw i32 %81, -1
  store i32 %84, ptr %8, align 4, !tbaa !4
  br label %lean_dec.exit46

85:                                               ; preds = %80
  %.not.i57 = icmp eq i32 %81, 0
  br i1 %.not.i57, label %lean_dec.exit46, label %86

86:                                               ; preds = %85
  tail call void @lean_dec_ref_cold(ptr noundef nonnull %8) #7
  br label %lean_dec.exit46

lean_dec.exit46:                                  ; preds = %86, %85, %83, %lean_dec.exit47
  %87 = ptrtoint ptr %4 to i64
  %88 = and i64 %87, 1
  %.not66 = icmp eq i64 %88, 0
  br i1 %.not66, label %89, label %lean_dec.exit

89:                                               ; preds = %lean_dec.exit46
  %90 = load i32, ptr %4, align 4, !tbaa !4
  %91 = icmp sgt i32 %90, 1
  br i1 %91, label %92, label %94, !prof !11

92:                                               ; preds = %89
  %93 = add nsw i32 %90, -1
  store i32 %93, ptr %4, align 4, !tbaa !4
  br label %lean_dec.exit

94:                                               ; preds = %89
  %.not.i59 = icmp eq i32 %90, 0
  br i1 %.not.i59, label %lean_dec.exit, label %95

95:                                               ; preds = %94
  tail call void @lean_dec_ref_cold(ptr noundef nonnull %4) #7
  br label %lean_dec.exit

lean_dec.exit:                                    ; preds = %95, %94, %92, %lean_dec.exit46
  ret ptr %59
}